target datalayout = "e-m:e-p270:32:32-p271:32:32-p272:64:64-i64:64-i128:128-f80:128-n8:16:32:64-S128"
target triple = "x86_64-pc-linux-gnu"

@H5_libinit_g = external global i8, align 1
@H5_libterm_g = external global i8, align 1
@.str = private unnamed_addr constant [97 x i8] c"generated/home/dtcxzyw/WorkSpace/Projects/compilers/llvm-opt-benchmark/bench/hdf5/hdf5/src/H5P.c\00", align 1
@H5E_FUNC_g = external global i64, align 8
@H5E_CANTINIT_g = external global i64, align 8
@.str.1 = private unnamed_addr constant [30 x i8] c"library initialization failed\00", align 1
@H5E_CANTSET_g = external global i64, align 8
@.str.2 = private unnamed_addr constant [22 x i8] c"can't set API context\00", align 1
@H5E_ARGS_g = external global i64, align 8
@H5E_BADTYPE_g = external global i64, align 8
@H5E_PLIST_g = external global i64, align 8
@H5E_NOTFOUND_g = external global i64, align 8
@.str.4 = private unnamed_addr constant [30 x i8] c"property object doesn't exist\00", align 1
@__func__.H5Pequal = private unnamed_addr constant [9 x i8] c"H5Pequal\00", align 1
@.str.37 = private unnamed_addr constant [21 x i8] c"not property objects\00", align 1
@.str.38 = private unnamed_addr constant [38 x i8] c"not the same kind of property objects\00", align 1
@H5E_CANTCOMPARE_g = external global i64, align 8
@.str.39 = private unnamed_addr constant [29 x i8] c"can't compare property lists\00", align 1

; Function Attrs: nounwind uwtable
define i32 @H5Pequal(i64 noundef %0, i64 noundef %1) #0 {
  %3 = alloca i64, align 8
  %4 = alloca i64, align 8
  %5 = alloca ptr, align 8
  %6 = alloca ptr, align 8
  %7 = alloca i32, align 4
  %8 = alloca i8, align 1
  %9 = alloca i8, align 1
  %10 = alloca i32, align 4
  store i64 %0, ptr %3, align 8
  store i64 %1, ptr %4, align 8
  store i32 0, ptr %7, align 4
  store i8 0, ptr %8, align 1
  store i8 0, ptr %9, align 1
  %11 = load i8, ptr @H5_libinit_g, align 1
  %12 = trunc i8 %11 to i1
  br i1 %12, label %17, label %13

13:                                               ; preds = %2
  %14 = load i8, ptr @H5_libterm_g, align 1
  %15 = trunc i8 %14 to i1
  %16 = xor i1 %15, true
  br label %17

17:                                               ; preds = %13, %2
  %18 = phi i1 [ false, %2 ], [ %16, %13 ]
  %19 = xor i1 %18, true
  %20 = xor i1 %19, true
  %21 = zext i1 %20 to i32
  %22 = sext i32 %21 to i64
  %23 = icmp ne i64 %22, 0
  br i1 %23, label %24, label %48

24:                                               ; preds = %17
  %25 = call i32 @H5_init_library()
  %26 = icmp slt i32 %25, 0
  %27 = xor i1 %26, true
  %28 = xor i1 %27, true
  %29 = zext i1 %28 to i32
  %30 = sext i32 %29 to i64
  %31 = icmp ne i64 %30, 0
  br i1 %31, label %32, label %47

32:                                               ; preds = %24
  br label %33

33:                                               ; preds = %32
  br label %34

34:                                               ; preds = %33
  br label %35

35:                                               ; preds = %34
  %36 = load i64, ptr @H5E_FUNC_g, align 8
  %37 = load i64, ptr @H5E_CANTINIT_g, align 8
  %38 = call i32 (ptr, ptr, i32, i64, i64, ptr, ...) @H5E_printf_stack(ptr noundef @.str, ptr noundef @__func__.H5Pequal, i32 noundef 1004, i64 noundef %36, i64 noundef %37, ptr noundef @.str.1)
  br label %39

39:                                               ; preds = %35
  store i8 1, ptr %9, align 1
  %40 = load i8, ptr %9, align 1
  %41 = trunc i8 %40 to i1
  %42 = zext i1 %41 to i8
  store i8 %42, ptr %9, align 1
  br label %43

43:                                               ; preds = %39
  br label %44

44:                                               ; preds = %43
  store i32 -1, ptr %7, align 4
  br label %184

45:                                               ; No predecessors!
  br label %46

46:                                               ; preds = %45
  br label %47

47:                                               ; preds = %46, %24
  br label %48

48:                                               ; preds = %47, %17
  %49 = call i32 @H5CX_push()
  %50 = icmp slt i32 %49, 0
  %51 = xor i1 %50, true
  %52 = xor i1 %51, true
  %53 = zext i1 %52 to i32
  %54 = sext i32 %53 to i64
  %55 = icmp ne i64 %54, 0
  br i1 %55, label %56, label %71

56:                                               ; preds = %48
  br label %57

57:                                               ; preds = %56
  br label %58

58:                                               ; preds = %57
  br label %59

59:                                               ; preds = %58
  %60 = load i64, ptr @H5E_FUNC_g, align 8
  %61 = load i64, ptr @H5E_CANTSET_g, align 8
  %62 = call i32 (ptr, ptr, i32, i64, i64, ptr, ...) @H5E_printf_stack(ptr noundef @.str, ptr noundef @__func__.H5Pequal, i32 noundef 1004, i64 noundef %60, i64 noundef %61, ptr noundef @.str.2)
  br label %63

63:                                               ; preds = %59
  store i8 1, ptr %9, align 1
  %64 = load i8, ptr %9, align 1
  %65 = trunc i8 %64 to i1
  %66 = zext i1 %65 to i8
  store i8 %66, ptr %9, align 1
  br label %67

67:                                               ; preds = %63
  br label %68

68:                                               ; preds = %67
  store i32 -1, ptr %7, align 4
  br label %184

69:                                               ; No predecessors!
  br label %70

70:                                               ; preds = %69
  br label %72

71:                                               ; preds = %48
  store i8 1, ptr %8, align 1
  br label %72

72:                                               ; preds = %71, %70
  %73 = call i32 @H5E_clear_stack()
  %74 = load i64, ptr %3, align 8
  %75 = call i32 @H5I_get_type(i64 noundef %74)
  %76 = icmp ne i32 11, %75
  br i1 %76, label %77, label %81

77:                                               ; preds = %72
  %78 = load i64, ptr %3, align 8
  %79 = call i32 @H5I_get_type(i64 noundef %78)
  %80 = icmp ne i32 10, %79
  br i1 %80, label %89, label %81

81:                                               ; preds = %77, %72
  %82 = load i64, ptr %4, align 8
  %83 = call i32 @H5I_get_type(i64 noundef %82)
  %84 = icmp ne i32 11, %83
  br i1 %84, label %85, label %104

85:                                               ; preds = %81
  %86 = load i64, ptr %4, align 8
  %87 = call i32 @H5I_get_type(i64 noundef %86)
  %88 = icmp ne i32 10, %87
  br i1 %88, label %89, label %104

89:                                               ; preds = %85, %77
  br label %90

90:                                               ; preds = %89
  br label %91

91:                                               ; preds = %90
  br label %92

92:                                               ; preds = %91
  %93 = load i64, ptr @H5E_ARGS_g, align 8
  %94 = load i64, ptr @H5E_BADTYPE_g, align 8
  %95 = call i32 (ptr, ptr, i32, i64, i64, ptr, ...) @H5E_printf_stack(ptr noundef @.str, ptr noundef @__func__.H5Pequal, i32 noundef 1009, i64 noundef %93, i64 noundef %94, ptr noundef @.str.37)
  br label %96

96:                                               ; preds = %92
  store i8 1, ptr %9, align 1
  %97 = load i8, ptr %9, align 1
  %98 = trunc i8 %97 to i1
  %99 = zext i1 %98 to i8
  store i8 %99, ptr %9, align 1
  br label %100

100:                                              ; preds = %96
  br label %101

101:                                              ; preds = %100
  store i32 -1, ptr %7, align 4
  br label %184

102:                                              ; No predecessors!
  br label %103

103:                                              ; preds = %102
  br label %104

104:                                              ; preds = %103, %85, %81
  %105 = load i64, ptr %3, align 8
  %106 = call i32 @H5I_get_type(i64 noundef %105)
  %107 = load i64, ptr %4, align 8
  %108 = call i32 @H5I_get_type(i64 noundef %107)
  %109 = icmp ne i32 %106, %108
  br i1 %109, label %110, label %125

110:                                              ; preds = %104
  br label %111

111:                                              ; preds = %110
  br label %112

112:                                              ; preds = %111
  br label %113

113:                                              ; preds = %112
  %114 = load i64, ptr @H5E_ARGS_g, align 8
  %115 = load i64, ptr @H5E_BADTYPE_g, align 8
  %116 = call i32 (ptr, ptr, i32, i64, i64, ptr, ...) @H5E_printf_stack(ptr noundef @.str, ptr noundef @__func__.H5Pequal, i32 noundef 1011, i64 noundef %114, i64 noundef %115, ptr noundef @.str.38)
  br label %117

117:                                              ; preds = %113
  store i8 1, ptr %9, align 1
  %118 = load i8, ptr %9, align 1
  %119 = trunc i8 %118 to i1
  %120 = zext i1 %119 to i8
  store i8 %120, ptr %9, align 1
  br label %121

121:                                              ; preds = %117
  br label %122

122:                                              ; preds = %121
  store i32 -1, ptr %7, align 4
  br label %184

123:                                              ; No predecessors!
  br label %124

124:                                              ; preds = %123
  br label %125

125:                                              ; preds = %124, %104
  %126 = load i64, ptr %3, align 8
  %127 = call ptr @H5I_object(i64 noundef %126)
  store ptr %127, ptr %5, align 8
  %128 = icmp eq ptr null, %127
  br i1 %128, label %133, label %129

129:                                              ; preds = %125
  %130 = load i64, ptr %4, align 8
  %131 = call ptr @H5I_object(i64 noundef %130)
  store ptr %131, ptr %6, align 8
  %132 = icmp eq ptr null, %131
  br i1 %132, label %133, label %148

133:                                              ; preds = %129, %125
  br label %134

134:                                              ; preds = %133
  br label %135

135:                                              ; preds = %134
  br label %136

136:                                              ; preds = %135
  %137 = load i64, ptr @H5E_PLIST_g, align 8
  %138 = load i64, ptr @H5E_NOTFOUND_g, align 8
  %139 = call i32 (ptr, ptr, i32, i64, i64, ptr, ...) @H5E_printf_stack(ptr noundef @.str, ptr noundef @__func__.H5Pequal, i32 noundef 1013, i64 noundef %137, i64 noundef %138, ptr noundef @.str.4)
  br label %140

140:                                              ; preds = %136
  store i8 1, ptr %9, align 1
  %141 = load i8, ptr %9, align 1
  %142 = trunc i8 %141 to i1
  %143 = zext i1 %142 to i8
  store i8 %143, ptr %9, align 1
  br label %144

144:                                              ; preds = %140
  br label %145

145:                                              ; preds = %144
  store i32 -1, ptr %7, align 4
  br label %184

146:                                              ; No predecessors!
  br label %147

147:                                              ; preds = %146
  br label %148

148:                                              ; preds = %147, %129
  %149 = load i64, ptr %3, align 8
  %150 = call i32 @H5I_get_type(i64 noundef %149)
  %151 = icmp eq i32 11, %150
  br i1 %151, label %152, label %176

152:                                              ; preds = %148
  store i32 0, ptr %10, align 4
  %153 = load ptr, ptr %5, align 8
  %154 = load ptr, ptr %6, align 8
  %155 = call i32 @H5P__cmp_plist(ptr noundef %153, ptr noundef %154, ptr noundef %10)
  %156 = icmp slt i32 %155, 0
  br i1 %156, label %157, label %172

157:                                              ; preds = %152
  br label %158

158:                                              ; preds = %157
  br label %159

159:                                              ; preds = %158
  br label %160

160:                                              ; preds = %159
  %161 = load i64, ptr @H5E_PLIST_g, align 8
  %162 = load i64, ptr @H5E_CANTCOMPARE_g, align 8
  %163 = call i32 (ptr, ptr, i32, i64, i64, ptr, ...) @H5E_printf_stack(ptr noundef @.str, ptr noundef @__func__.H5Pequal, i32 noundef 1020, i64 noundef %161, i64 noundef %162, ptr noundef @.str.39)
  br label %164

164:                                              ; preds = %160
  store i8 1, ptr %9, align 1
  %165 = load i8, ptr %9, align 1
  %166 = trunc i8 %165 to i1
  %167 = zext i1 %166 to i8
  store i8 %167, ptr %9, align 1
  br label %168

168:                                              ; preds = %164
  br label %169

169:                                              ; preds = %168
  store i32 -1, ptr %7, align 4
  br label %184

170:                                              ; No predecessors!
  br label %171

171:                                              ; preds = %170
  br label %172

172:                                              ; preds = %171, %152
  %173 = load i32, ptr %10, align 4
  %174 = icmp eq i32 %173, 0
  %175 = select i1 %174, i32 1, i32 0
  store i32 %175, ptr %7, align 4
  br label %183

176:                                              ; preds = %148
  %177 = load ptr, ptr %5, align 8
  %178 = load ptr, ptr %6, align 8
  %179 = call i32 @H5P__cmp_class(ptr noundef %177, ptr noundef %178)
  %180 = icmp eq i32 %179, 0
  br i1 %180, label %181, label %182

181:                                              ; preds = %176
  store i32 1, ptr %7, align 4
  br label %182

182:                                              ; preds = %181, %176
  br label %183

183:                                              ; preds = %182, %172
  br label %184

184:                                              ; preds = %183, %169, %145, %122, %101, %68, %44
  %185 = load i8, ptr %8, align 1
  %186 = trunc i8 %185 to i1
  %187 = xor i1 %186, true
  %188 = xor i1 %187, true
  %189 = zext i1 %188 to i32
  %190 = sext i32 %189 to i64
  %191 = icmp ne i64 %190, 0
  br i1 %191, label %192, label %194

192:                                              ; preds = %184
  %193 = call i32 @H5CX_pop(i1 noundef zeroext true)
  store i8 0, ptr %8, align 1
  br label %194

194:                                              ; preds = %192, %184
  %195 = load i8, ptr %9, align 1
  %196 = trunc i8 %195 to i1
  %197 = xor i1 %196, true
  %198 = xor i1 %197, true
  %199 = zext i1 %198 to i32
  %200 = sext i32 %199 to i64
  %201 = icmp ne i64 %200, 0
  br i1 %201, label %202, label %204

202:                                              ; preds = %194
  %203 = call i32 @H5E_dump_api_stack()
  br label %204

204:                                              ; preds = %202, %194
  %205 = load i32, ptr %7, align 4
  ret i32 %205
}