; Function Attrs: nounwind uwtable
define range(i32 -1, 2) i32 @H5Pequal(i64 noundef %0, i64 noundef %1) local_unnamed_addr #0 {
  %3 = alloca i32, align 4
  %4 = load i8, ptr @H5_libinit_g, align 1
  %5 = trunc i8 %4 to i1
  %6 = load i8, ptr @H5_libterm_g, align 1
  %7 = trunc i8 %6 to i1
  %8 = select i1 %5, i1 true, i1 %7
  br i1 %8, label %16, label %9

9:                                                ; preds = %2
  %10 = tail call i32 @H5_init_library() #2
  %11 = icmp slt i32 %10, 0
  br i1 %11, label %12, label %16

12:                                               ; preds = %9
  %13 = load i64, ptr @H5E_FUNC_g, align 8
  %14 = load i64, ptr @H5E_CANTINIT_g, align 8
  %15 = tail call i32 (ptr, ptr, i32, i64, i64, ptr, ...) @H5E_printf_stack(ptr noundef nonnull @.str, ptr noundef nonnull @__func__.H5Pequal, i32 noundef 1004, i64 noundef %13, i64 noundef %14, ptr noundef nonnull @.str.1) #2
  br label %.thread37

16:                                               ; preds = %9, %2
  %17 = tail call i32 @H5CX_push() #2
  %18 = icmp slt i32 %17, 0
  br i1 %18, label %19, label %23

19:                                               ; preds = %16
  %20 = load i64, ptr @H5E_FUNC_g, align 8
  %21 = load i64, ptr @H5E_CANTSET_g, align 8
  %22 = tail call i32 (ptr, ptr, i32, i64, i64, ptr, ...) @H5E_printf_stack(ptr noundef nonnull @.str, ptr noundef nonnull @__func__.H5Pequal, i32 noundef 1004, i64 noundef %20, i64 noundef %21, ptr noundef nonnull @.str.2) #2
  br label %.thread37

23:                                               ; preds = %16
  %24 = tail call i32 @H5E_clear_stack() #2
  %25 = tail call i32 @H5I_get_type(i64 noundef %0) #2
  %.not = icmp eq i32 %25, 11
  br i1 %.not, label %28, label %26

26:                                               ; preds = %23
  %27 = tail call i32 @H5I_get_type(i64 noundef %0) #2
  %.not25 = icmp eq i32 %27, 10
  br i1 %.not25, label %28, label %32

28:                                               ; preds = %26, %23
  %29 = tail call i32 @H5I_get_type(i64 noundef %1) #2
  %.not26 = icmp eq i32 %29, 11
  br i1 %.not26, label %36, label %30

30:                                               ; preds = %28
  %31 = tail call i32 @H5I_get_type(i64 noundef %1) #2
  %.not27 = icmp eq i32 %31, 10
  br i1 %.not27, label %36, label %32

32:                                               ; preds = %26, %30
  %33 = load i64, ptr @H5E_ARGS_g, align 8
  %34 = load i64, ptr @H5E_BADTYPE_g, align 8
  %35 = tail call i32 (ptr, ptr, i32, i64, i64, ptr, ...) @H5E_printf_stack(ptr noundef nonnull @.str, ptr noundef nonnull @__func__.H5Pequal, i32 noundef 1009, i64 noundef %33, i64 noundef %34, ptr noundef nonnull @.str.37) #2
  br label %.thread43

36:                                               ; preds = %30, %28
  %37 = tail call i32 @H5I_get_type(i64 noundef %0) #2
  %38 = tail call i32 @H5I_get_type(i64 noundef %1) #2
  %.not28 = icmp eq i32 %37, %38
  br i1 %.not28, label %43, label %39

39:                                               ; preds = %36
  %40 = load i64, ptr @H5E_ARGS_g, align 8
  %41 = load i64, ptr @H5E_BADTYPE_g, align 8
  %42 = tail call i32 (ptr, ptr, i32, i64, i64, ptr, ...) @H5E_printf_stack(ptr noundef nonnull @.str, ptr noundef nonnull @__func__.H5Pequal, i32 noundef 1011, i64 noundef %40, i64 noundef %41, ptr noundef nonnull @.str.38) #2
  br label %.thread43

43:                                               ; preds = %36
  %44 = tail call ptr @H5I_object(i64 noundef %0) #2
  %45 = icmp eq ptr %44, null
  br i1 %45, label %49, label %46

46:                                               ; preds = %43
  %47 = tail call ptr @H5I_object(i64 noundef %1) #2
  %48 = icmp eq ptr %47, null
  br i1 %48, label %49, label %53

49:                                               ; preds = %43, %46
  %50 = load i64, ptr @H5E_PLIST_g, align 8
  %51 = load i64, ptr @H5E_NOTFOUND_g, align 8
  %52 = tail call i32 (ptr, ptr, i32, i64, i64, ptr, ...) @H5E_printf_stack(ptr noundef nonnull @.str, ptr noundef nonnull @__func__.H5Pequal, i32 noundef 1013, i64 noundef %50, i64 noundef %51, ptr noundef nonnull @.str.4) #2
  br label %.thread43

53:                                               ; preds = %46
  %54 = tail call i32 @H5I_get_type(i64 noundef %0) #2
  %55 = icmp eq i32 %54, 11
  br i1 %55, label %56, label %65

56:                                               ; preds = %53
  store i32 0, ptr %3, align 4
  %57 = call i32 @H5P__cmp_plist(ptr noundef nonnull %44, ptr noundef nonnull %47, ptr noundef nonnull %3) #2
  %58 = icmp slt i32 %57, 0
  br i1 %58, label %59, label %63

59:                                               ; preds = %56
  %60 = load i64, ptr @H5E_PLIST_g, align 8
  %61 = load i64, ptr @H5E_CANTCOMPARE_g, align 8
  %62 = call i32 (ptr, ptr, i32, i64, i64, ptr, ...) @H5E_printf_stack(ptr noundef nonnull @.str, ptr noundef nonnull @__func__.H5Pequal, i32 noundef 1020, i64 noundef %60, i64 noundef %61, ptr noundef nonnull @.str.39) #2
  br label %.thread43

63:                                               ; preds = %56
  %64 = load i32, ptr %3, align 4
  br label %68

65:                                               ; preds = %53
  %66 = tail call i32 @H5P__cmp_class(ptr noundef nonnull %44, ptr noundef nonnull %47) #2
  br label %68

.thread43:                                        ; preds = %59, %49, %39, %32
  %67 = call i32 @H5CX_pop(i1 noundef zeroext true) #2
  br label %.thread37

68:                                               ; preds = %65, %63
  %.022.ph.in.in = phi i32 [ %66, %65 ], [ %64, %63 ]
  %.022.ph.in = icmp eq i32 %.022.ph.in.in, 0
  %.022.ph = zext i1 %.022.ph.in to i32
  %69 = call i32 @H5CX_pop(i1 noundef zeroext true) #2
  br label %71

.thread37:                                        ; preds = %19, %12, %.thread43
  %70 = call i32 @H5E_dump_api_stack() #2
  br label %71

71:                                               ; preds = %68, %.thread37
  %.0223240 = phi i32 [ -1, %.thread37 ], [ %.022.ph, %68 ]
  ret i32 %.0223240
}